target datalayout = "e-m:e-p270:32:32-p271:32:32-p272:64:64-i64:64-i128:128-f80:128-n8:16:32:64-S128"
target triple = "x86_64-pc-linux-gnu"

%struct._packet_info = type { ptr, ptr, i32, i32, %struct.nstime_t, %struct.nstime_t, %struct.nstime_t, i32, ptr, ptr, ptr, ptr, %struct._address, %struct._address, %struct._address, %struct._address, %struct._address, %struct._address, i32, ptr, i32, %struct.anon, i32, i32, i32, i32, ptr, i32, ptr, ptr, i16, i16, i32, i32, i16, i32, i32, ptr, ptr, ptr, i8, i8, i16, i16, i16, i32, i16, i16, ptr, ptr, ptr, ptr, ptr, i32 }
%struct.nstime_t = type { i64, i32 }
%struct._address = type { i32, i32, ptr, ptr }
%struct.anon = type { i8, [3 x i8] }

@hf_tcp_srcport = internal global i32 0, align 4
@.str.883 = private unnamed_addr constant [14 x i8] c"source (%u%s)\00", align 1
@.str.884 = private unnamed_addr constant [4 x i8] c"\E2\86\92\00", align 1

; Function Attrs: nounwind uwtable
define internal void @tcp_src_prompt(ptr noundef %0, ptr noundef %1) #0 {
  %3 = alloca ptr, align 8
  %4 = alloca ptr, align 8
  %5 = alloca i32, align 4
  store ptr %0, ptr %3, align 8
  store ptr %1, ptr %4, align 8
  %6 = load ptr, ptr %3, align 8
  %7 = getelementptr inbounds %struct._packet_info, ptr %6, i32 0, i32 50
  %8 = load ptr, ptr %7, align 8
  %9 = load ptr, ptr %3, align 8
  %10 = load i32, ptr @hf_tcp_srcport, align 4
  %11 = load ptr, ptr %3, align 8
  %12 = getelementptr inbounds %struct._packet_info, ptr %11, i32 0, i32 40
  %13 = load i8, ptr %12, align 8
  %14 = zext i8 %13 to i32
  %15 = call ptr @p_get_proto_data(ptr noundef %8, ptr noundef %9, i32 noundef %10, i32 noundef %14)
  %16 = ptrtoint ptr %15 to i64
  %17 = trunc i64 %16 to i32
  store i32 %17, ptr %5, align 4
  %18 = load ptr, ptr %4, align 8
  %19 = load i32, ptr %5, align 4
  %20 = call i32 (ptr, i64, ptr, ...) @snprintf(ptr noundef %18, i64 noundef 200, ptr noundef @.str.883, i32 noundef %19, ptr noundef @.str.884) #16
  ret void
}